target datalayout = "e-m:e-p270:32:32-p271:32:32-p272:64:64-i64:64-i128:128-f80:128-n8:16:32:64-S128"
target triple = "x86_64-pc-linux-gnu"

%class.VMOperationTimeoutTask = type { %class.PeriodicTask, i32, i64, ptr }
%class.PeriodicTask = type { ptr, i32, i32 }
%"struct.Atomic::StoreImpl.14" = type { i8 }
%"struct.Atomic::PlatformOrderedStore.15" = type { i8 }

@AbortVMOnVMOperationTimeoutDelay = external global i64, align 8
@g_assert_poison = external global ptr, align 8
@.str = private unnamed_addr constant [39 x i8] c"src/hotspot/share/runtime/vmThread.cpp\00", align 1
@.str.5 = private unnamed_addr constant [69 x i8] c"%s VM operation took too long: completed in %ld ms (timeout: %ld ms)\00", align 1

; Function Attrs: mustprogress nounwind uwtable
define linkonce_odr hidden void @_ZNK6Atomic20PlatformOrderedStoreILm4EL15ScopedFenceType2EEclIiEEvPVT_S4_(ptr noundef nonnull align 1 dereferenceable(1) %0, ptr noundef %1, i32 noundef %2) #1 comdat align 2 {
  %4 = alloca ptr, align 8
  %5 = alloca ptr, align 8
  %6 = alloca i32, align 4
  store ptr %0, ptr %4, align 8
  store ptr %1, ptr %5, align 8
  store i32 %2, ptr %6, align 4
  %7 = load i32, ptr %6, align 4
  %8 = load ptr, ptr %5, align 8
  %9 = call i32 asm sideeffect "xchgl ($2),$0", "=r,0,r,~{memory},~{dirflag},~{fpsr},~{flags}"(i32 %7, ptr %8) #6, !srcloc !28
  store i32 %9, ptr %6, align 4
  ret void
}

; Function Attrs: mustprogress nounwind uwtable
define linkonce_odr hidden void @_ZNK6Atomic9StoreImplIiiNS_20PlatformOrderedStoreILm4EL15ScopedFenceType2EEEvEclEPVii(ptr noundef nonnull align 1 dereferenceable(1) %0, ptr noundef %1, i32 noundef %2) #1 comdat align 2 {
  %4 = alloca ptr, align 8
  %5 = alloca ptr, align 8
  %6 = alloca i32, align 4
  %7 = alloca %"struct.Atomic::PlatformOrderedStore.15", align 1
  store ptr %0, ptr %4, align 8
  store ptr %1, ptr %5, align 8
  store i32 %2, ptr %6, align 4
  %8 = load ptr, ptr %5, align 8
  %9 = load i32, ptr %6, align 4
  call void @_ZNK6Atomic20PlatformOrderedStoreILm4EL15ScopedFenceType2EEclIiEEvPVT_S4_(ptr noundef nonnull align 1 dereferenceable(1) %7, ptr noundef %8, i32 noundef %9)
  ret void
}

; Function Attrs: mustprogress nounwind uwtable
define linkonce_odr hidden noundef i64 @_Z15nanos_to_millisl(i64 noundef %0) #1 comdat {
  %2 = alloca i64, align 8
  store i64 %0, ptr %2, align 8
  %3 = load i64, ptr %2, align 8
  %4 = sdiv i64 %3, 1000000
  ret i64 %4
}

; Function Attrs: mustprogress nounwind uwtable
define linkonce_odr hidden void @_ZN6Atomic19release_store_fenceIiiEEvPVT_T0_(ptr noundef %0, i32 noundef %1) #1 comdat align 2 {
  %3 = alloca ptr, align 8
  %4 = alloca i32, align 4
  %5 = alloca %"struct.Atomic::StoreImpl.14", align 1
  store ptr %0, ptr %3, align 8
  store i32 %1, ptr %4, align 4
  %6 = load ptr, ptr %3, align 8
  %7 = load i32, ptr %4, align 4
  call void @_ZNK6Atomic9StoreImplIiiNS_20PlatformOrderedStoreILm4EL15ScopedFenceType2EEEvEclEPVii(ptr noundef nonnull align 1 dereferenceable(1) %5, ptr noundef %6, i32 noundef %7)
  ret void
}

; Function Attrs: mustprogress nounwind uwtable
define hidden void @_ZN22VMOperationTimeoutTask6disarmEv(ptr noundef nonnull align 8 dereferenceable(40) %0) #1 align 2 {
  %2 = alloca ptr, align 8
  %3 = alloca i64, align 8
  store ptr %0, ptr %2, align 8
  %4 = load ptr, ptr %2, align 8
  %5 = getelementptr inbounds %class.VMOperationTimeoutTask, ptr %4, i32 0, i32 1
  call void @_ZN6Atomic19release_store_fenceIiiEEvPVT_T0_(ptr noundef %5, i32 noundef 0)
  %6 = call noundef i64 @_ZN2os13javaTimeNanosEv()
  %7 = getelementptr inbounds %class.VMOperationTimeoutTask, ptr %4, i32 0, i32 2
  %8 = load i64, ptr %7, align 8
  %9 = sub nsw i64 %6, %8
  %10 = call noundef i64 @_Z15nanos_to_millisl(i64 noundef %9)
  store i64 %10, ptr %3, align 8
  %11 = load i64, ptr %3, align 8
  %12 = load i64, ptr @AbortVMOnVMOperationTimeoutDelay, align 8
  %13 = icmp sgt i64 %11, %12
  br i1 %13, label %14, label %22

14:                                               ; preds = %1
  br label %15

15:                                               ; preds = %14
  %16 = load ptr, ptr @g_assert_poison, align 8
  store i8 88, ptr %16, align 1
  %17 = getelementptr inbounds %class.VMOperationTimeoutTask, ptr %4, i32 0, i32 3
  %18 = load ptr, ptr %17, align 8
  %19 = load i64, ptr %3, align 8
  %20 = load i64, ptr @AbortVMOnVMOperationTimeoutDelay, align 8
  call void (i32, ptr, i32, ptr, ...) @_Z12report_fatal11VMErrorTypePKciS1_z(i32 noundef -536870912, ptr noundef @.str, i32 noundef 92, ptr noundef @.str.5, ptr noundef %18, i64 noundef %19, i64 noundef %20) #11
  unreachable

21:                                               ; No predecessors!
  br label %22

22:                                               ; preds = %21, %1
  %23 = getelementptr inbounds %class.VMOperationTimeoutTask, ptr %4, i32 0, i32 3
  store ptr null, ptr %23, align 8
  ret void
}