; Function Attrs: mustprogress nounwind uwtable
define hidden void @_ZN22VMOperationTimeoutTask6disarmEv(ptr noundef nonnull align 8 dereferenceable(40) %0) local_unnamed_addr #0 align 2 {
  %2 = getelementptr inbounds i8, ptr %0, i64 16
  %3 = tail call i32 asm sideeffect "xchgl ($2),$0", "=r,0,r,~{memory},~{dirflag},~{fpsr},~{flags}"(i32 0, ptr nonnull %2) #13, !srcloc !7
  %4 = tail call noundef i64 @_ZN2os13javaTimeNanosEv() #13
  %5 = getelementptr inbounds i8, ptr %0, i64 24
  %6 = load i64, ptr %5, align 8
  %7 = sub nsw i64 %4, %6
  %8 = sdiv i64 %7, 1000000
  %9 = load i64, ptr @AbortVMOnVMOperationTimeoutDelay, align 8
  %10 = icmp sgt i64 %8, %9
  br i1 %10, label %11, label %16

11:                                               ; preds = %1
  %12 = load ptr, ptr @g_assert_poison, align 8
  store i8 88, ptr %12, align 1
  %13 = getelementptr inbounds i8, ptr %0, i64 32
  %14 = load ptr, ptr %13, align 8
  %15 = load i64, ptr @AbortVMOnVMOperationTimeoutDelay, align 8
  tail call void (i32, ptr, i32, ptr, ...) @_Z12report_fatal11VMErrorTypePKciS1_z(i32 noundef -536870912, ptr noundef nonnull @.str, i32 noundef 92, ptr noundef nonnull @.str.5, ptr noundef %14, i64 noundef %8, i64 noundef %15) #14
  unreachable

16:                                               ; preds = %1
  %17 = getelementptr inbounds i8, ptr %0, i64 32
  store ptr null, ptr %17, align 8
  ret void
}